; Function Attrs: mustprogress nounwind uwtable
define hidden noundef ptr @_ZNK12BarrierSetC214atomic_xchg_atER19C2AtomicParseAccessP4NodePK4Type(ptr noundef nonnull align 8 dereferenceable(8) %0, ptr noundef nonnull align 8 dereferenceable(76) %1, ptr noundef %2, ptr noundef %3) unnamed_addr #2 align 2 {
  %5 = alloca %class.C2AccessFence, align 8
  call void @_ZN13C2AccessFenceC2ER8C2Access(ptr noundef nonnull align 8 dereferenceable(16) %5, ptr noundef nonnull align 8 dereferenceable(49) %1)
  %6 = load ptr, ptr %0, align 8
  %7 = load ptr, ptr %6, align 8
  call void %7(ptr noundef nonnull align 8 dereferenceable(8) %0, ptr noundef nonnull align 8 dereferenceable(49) %1) #14
  %8 = load ptr, ptr %0, align 8
  %9 = getelementptr inbounds i8, ptr %8, i64 40
  %10 = load ptr, ptr %9, align 8
  %11 = call noundef ptr %10(ptr noundef nonnull align 8 dereferenceable(8) %0, ptr noundef nonnull align 8 dereferenceable(76) %1, ptr noundef %2, ptr noundef %3) #14
  call void @_ZN13C2AccessFenceD2Ev(ptr noundef nonnull align 8 dereferenceable(16) %5) #14
  ret ptr %11
}